; Function Attrs: nounwind sspstrong uwtable
define internal noundef i64 @rb_inflate_addstr(i64 noundef returned %0, i64 noundef %1) #0 {
  %3 = alloca i64, align 8
  store i64 %1, ptr %3, align 8, !tbaa !6
  %4 = tail call ptr @rb_check_typeddata(i64 noundef %0, ptr noundef nonnull @zstream_data_type) #18
  %5 = load i64, ptr %4, align 8, !tbaa !42
  %6 = and i64 %5, 1
  %.not.i = icmp eq i64 %6, 0
  br i1 %.not.i, label %7, label %get_zstream.exit

7:                                                ; preds = %2
  %8 = load i64, ptr @cZError, align 8, !tbaa !6
  tail call void (i64, ptr, ...) @rb_raise(i64 noundef %8, ptr noundef nonnull @.str.150) #19
  unreachable

get_zstream.exit:                                 ; preds = %2
  %9 = and i64 %5, 4
  %.not = icmp eq i64 %9, 0
  br i1 %.not, label %22, label %10

10:                                               ; preds = %get_zstream.exit
  %11 = icmp eq i64 %1, 4
  br i1 %11, label %zstream_passthrough_input.exit, label %12

12:                                               ; preds = %10
  %13 = call i64 @rb_string_value(ptr noundef nonnull %3) #18
  %14 = load i64, ptr %3, align 8, !tbaa !6
  %15 = inttoptr i64 %14 to ptr
  %16 = load i64, ptr %15, align 8, !tbaa !16, !noalias !98
  %17 = and i64 %16, 8192
  %.not.i.i = icmp eq i64 %17, 0
  %18 = getelementptr inbounds nuw i8, ptr %15, i64 24
  br i1 %.not.i.i, label %RSTRING_PTR.exit, label %19

19:                                               ; preds = %12
  %.sroa.2.0.copyload.i = load ptr, ptr %18, align 8
  br label %RSTRING_PTR.exit

RSTRING_PTR.exit:                                 ; preds = %12, %19
  %.sroa.2.0.i = phi ptr [ %.sroa.2.0.copyload.i, %19 ], [ %18, %12 ]
  %20 = getelementptr inbounds nuw i8, ptr %15, i64 16
  %21 = load i64, ptr %20, align 8, !tbaa !21
  call fastcc void @zstream_append_buffer(ptr noundef nonnull %4, ptr noundef %.sroa.2.0.i, i64 noundef %21)
  br label %zstream_passthrough_input.exit

22:                                               ; preds = %get_zstream.exit
  tail call fastcc void @do_inflate(ptr noundef nonnull %4, i64 noundef %1)
  %23 = load i64, ptr %4, align 8, !tbaa !42
  %24 = and i64 %23, 4
  %.not6 = icmp eq i64 %24, 0
  br i1 %.not6, label %zstream_passthrough_input.exit, label %25

25:                                               ; preds = %22
  %26 = getelementptr inbounds nuw i8, ptr %4, i64 16
  %27 = load i64, ptr %26, align 8, !tbaa !51
  %28 = icmp eq i64 %27, 4
  br i1 %28, label %zstream_passthrough_input.exit, label %29

29:                                               ; preds = %25
  %30 = inttoptr i64 %27 to ptr
  %31 = load i64, ptr %30, align 8, !tbaa !16, !noalias !101
  %32 = and i64 %31, 8192
  %.not.i.i.i = icmp eq i64 %32, 0
  %33 = getelementptr inbounds nuw i8, ptr %30, i64 24
  br i1 %.not.i.i.i, label %RSTRING_PTR.exit.i, label %34

34:                                               ; preds = %29
  %.sroa.2.0.copyload.i.i = load ptr, ptr %33, align 8
  br label %RSTRING_PTR.exit.i

RSTRING_PTR.exit.i:                               ; preds = %34, %29
  %.sroa.2.0.i.i = phi ptr [ %.sroa.2.0.copyload.i.i, %34 ], [ %33, %29 ]
  %35 = getelementptr inbounds nuw i8, ptr %30, i64 16
  %36 = load i64, ptr %35, align 8, !tbaa !21
  tail call fastcc void @zstream_append_buffer(ptr noundef nonnull %4, ptr noundef %.sroa.2.0.i.i, i64 noundef %36)
  store i64 4, ptr %26, align 8, !tbaa !51
  br label %zstream_passthrough_input.exit

zstream_passthrough_input.exit:                   ; preds = %RSTRING_PTR.exit.i, %25, %22, %10, %RSTRING_PTR.exit
  ret i64 %0
}